target datalayout = "e-m:e-p270:32:32-p271:32:32-p272:64:64-i64:64-i128:128-f80:128-n8:16:32:64-S128"
target triple = "x86_64-pc-linux-gnu"

%union.YYSTYPE = type { %"struct.nix::StringToken" }
%"struct.nix::StringToken" = type { ptr, i64, i8 }
%"struct.nix::ParserLocation" = type { i32, i32, i32, i32, i32, i32, i32, i32 }
%union.yyGLRStackItem = type { %struct.yySemanticOption }
%struct.yySemanticOption = type { i8, i32, ptr, i32, %union.YYSTYPE, %"struct.nix::ParserLocation", ptr }
%struct.yyGLRState = type { i8, i8, i32, ptr, i64, %union.anon.38, %"struct.nix::ParserLocation" }
%union.anon.38 = type { %union.YYSTYPE }

; Function Attrs: mustprogress nounwind uwtable
define internal void @_ZL8yyfillinP14yyGLRStackItemii(ptr noundef %0, i32 noundef %1, i32 noundef %2) #2 {
  %4 = alloca ptr, align 8
  %5 = alloca i32, align 4
  %6 = alloca i32, align 4
  %7 = alloca i32, align 4
  %8 = alloca ptr, align 8
  store ptr %0, ptr %4, align 8
  store i32 %1, ptr %5, align 4
  store i32 %2, ptr %6, align 4
  %9 = load ptr, ptr %4, align 8
  %10 = load i32, ptr %5, align 4
  %11 = sext i32 %10 to i64
  %12 = getelementptr inbounds %union.yyGLRStackItem, ptr %9, i64 %11
  %13 = getelementptr inbounds %struct.yyGLRState, ptr %12, i32 0, i32 3
  %14 = load ptr, ptr %13, align 8
  store ptr %14, ptr %8, align 8
  %15 = load i32, ptr %5, align 4
  %16 = sub nsw i32 %15, 1
  store i32 %16, ptr %7, align 4
  br label %17

17:                                               ; preds = %66, %3
  %18 = load i32, ptr %7, align 4
  %19 = load i32, ptr %6, align 4
  %20 = icmp sge i32 %18, %19
  br i1 %20, label %21, label %69

21:                                               ; preds = %17
  %22 = load ptr, ptr %8, align 8
  %23 = getelementptr inbounds %struct.yyGLRState, ptr %22, i32 0, i32 1
  %24 = load i8, ptr %23, align 1
  %25 = trunc i8 %24 to i1
  %26 = load ptr, ptr %4, align 8
  %27 = load i32, ptr %7, align 4
  %28 = sext i32 %27 to i64
  %29 = getelementptr inbounds %union.yyGLRStackItem, ptr %26, i64 %28
  %30 = getelementptr inbounds %struct.yyGLRState, ptr %29, i32 0, i32 1
  %31 = zext i1 %25 to i8
  store i8 %31, ptr %30, align 1
  %32 = load ptr, ptr %8, align 8
  %33 = getelementptr inbounds %struct.yyGLRState, ptr %32, i32 0, i32 1
  %34 = load i8, ptr %33, align 1
  %35 = trunc i8 %34 to i1
  br i1 %35, label %36, label %44

36:                                               ; preds = %21
  %37 = load ptr, ptr %8, align 8
  %38 = getelementptr inbounds %struct.yyGLRState, ptr %37, i32 0, i32 5
  %39 = load ptr, ptr %4, align 8
  %40 = load i32, ptr %7, align 4
  %41 = sext i32 %40 to i64
  %42 = getelementptr inbounds %union.yyGLRStackItem, ptr %39, i64 %41
  %43 = getelementptr inbounds %struct.yyGLRState, ptr %42, i32 0, i32 5
  call void @llvm.memcpy.p0.p0.i64(ptr align 8 %43, ptr align 8 %38, i64 24, i1 false)
  br label %50

44:                                               ; preds = %21
  %45 = load ptr, ptr %4, align 8
  %46 = load i32, ptr %7, align 4
  %47 = sext i32 %46 to i64
  %48 = getelementptr inbounds %union.yyGLRStackItem, ptr %45, i64 %47
  %49 = getelementptr inbounds %struct.yyGLRState, ptr %48, i32 0, i32 5
  store ptr null, ptr %49, align 8
  br label %50

50:                                               ; preds = %44, %36
  %51 = load ptr, ptr %8, align 8
  %52 = getelementptr inbounds %struct.yyGLRState, ptr %51, i32 0, i32 6
  %53 = load ptr, ptr %4, align 8
  %54 = load i32, ptr %7, align 4
  %55 = sext i32 %54 to i64
  %56 = getelementptr inbounds %union.yyGLRStackItem, ptr %53, i64 %55
  %57 = getelementptr inbounds %struct.yyGLRState, ptr %56, i32 0, i32 6
  call void @llvm.memcpy.p0.p0.i64(ptr align 8 %57, ptr align 8 %52, i64 32, i1 false)
  %58 = load ptr, ptr %8, align 8
  %59 = getelementptr inbounds %struct.yyGLRState, ptr %58, i32 0, i32 3
  %60 = load ptr, ptr %59, align 8
  %61 = load ptr, ptr %4, align 8
  %62 = load i32, ptr %7, align 4
  %63 = sext i32 %62 to i64
  %64 = getelementptr inbounds %union.yyGLRStackItem, ptr %61, i64 %63
  %65 = getelementptr inbounds %struct.yyGLRState, ptr %64, i32 0, i32 3
  store ptr %60, ptr %65, align 8
  store ptr %60, ptr %8, align 8
  br label %66

66:                                               ; preds = %50
  %67 = load i32, ptr %7, align 4
  %68 = sub nsw i32 %67, 1
  store i32 %68, ptr %7, align 4
  br label %17, !llvm.loop !69

69:                                               ; preds = %17
  ret void
}

; Function Attrs: mustprogress uwtable
define internal noundef i32 @_ZL6yyfillP14yyGLRStackItemPiib(ptr noundef %0, ptr noundef %1, i32 noundef %2, i1 noundef zeroext %3) #5 {
  %5 = alloca ptr, align 8
  %6 = alloca ptr, align 8
  %7 = alloca i32, align 4
  %8 = alloca i8, align 1
  store ptr %0, ptr %5, align 8
  store ptr %1, ptr %6, align 8
  store i32 %2, ptr %7, align 4
  %9 = zext i1 %3 to i8
  store i8 %9, ptr %8, align 1
  %10 = load i8, ptr %8, align 1
  %11 = trunc i8 %10 to i1
  br i1 %11, label %24, label %12

12:                                               ; preds = %4
  %13 = load i32, ptr %7, align 4
  %14 = load ptr, ptr %6, align 8
  %15 = load i32, ptr %14, align 4
  %16 = icmp slt i32 %13, %15
  br i1 %16, label %17, label %24

17:                                               ; preds = %12
  %18 = load ptr, ptr %5, align 8
  %19 = load ptr, ptr %6, align 8
  %20 = load i32, ptr %19, align 4
  %21 = load i32, ptr %7, align 4
  call void @_ZL8yyfillinP14yyGLRStackItemii(ptr noundef %18, i32 noundef %20, i32 noundef %21)
  %22 = load i32, ptr %7, align 4
  %23 = load ptr, ptr %6, align 8
  store i32 %22, ptr %23, align 4
  br label %24

24:                                               ; preds = %17, %12, %4
  %25 = load i32, ptr %7, align 4
  ret i32 %25
}