; Function Attrs: mustprogress nofree norecurse nosync nounwind memory(readwrite, inaccessiblemem: none) uwtable
define internal fastcc noundef i32 @_ZL6yyfillP14yyGLRStackItemPiib(ptr nocapture noundef %0, ptr nocapture noundef %1, i32 noundef returned %2, i1 noundef zeroext %3) unnamed_addr #10 {
  br i1 %3, label %30, label %5

5:                                                ; preds = %4
  %6 = load i32, ptr %1, align 4
  %7 = icmp sgt i32 %6, %2
  br i1 %7, label %.lr.ph.preheader.i, label %30

.lr.ph.preheader.i:                               ; preds = %5
  %8 = sext i32 %6 to i64
  %9 = getelementptr inbounds %union.yyGLRStackItem, ptr %0, i64 %8, i32 0, i32 2
  %10 = load ptr, ptr %9, align 8
  %11 = sext i32 %2 to i64
  br label %.lr.ph.i

.lr.ph.i:                                         ; preds = %24, %.lr.ph.preheader.i
  %indvars.iv.i = phi i64 [ %8, %.lr.ph.preheader.i ], [ %indvars.iv.next.i, %24 ]
  %.024.i = phi ptr [ %10, %.lr.ph.preheader.i ], [ %28, %24 ]
  %indvars.iv.next.i = add nsw i64 %indvars.iv.i, -1
  %12 = getelementptr inbounds i8, ptr %.024.i, i64 1
  %13 = load i8, ptr %12, align 1
  %14 = and i8 %13, 1
  %15 = getelementptr inbounds %union.yyGLRStackItem, ptr %0, i64 %indvars.iv.next.i
  %16 = getelementptr inbounds i8, ptr %15, i64 1
  store i8 %14, ptr %16, align 1
  %17 = load i8, ptr %12, align 1
  %18 = and i8 %17, 1
  %.not21.i = icmp eq i8 %18, 0
  br i1 %.not21.i, label %22, label %19

19:                                               ; preds = %.lr.ph.i
  %20 = getelementptr inbounds i8, ptr %.024.i, i64 24
  %21 = getelementptr inbounds i8, ptr %15, i64 24
  tail call void @llvm.memcpy.p0.p0.i64(ptr noundef nonnull align 8 dereferenceable(24) %21, ptr noundef nonnull align 8 dereferenceable(24) %20, i64 24, i1 false)
  br label %24

22:                                               ; preds = %.lr.ph.i
  %23 = getelementptr inbounds i8, ptr %15, i64 24
  store ptr null, ptr %23, align 8
  br label %24

24:                                               ; preds = %22, %19
  %25 = getelementptr inbounds i8, ptr %.024.i, i64 48
  %26 = getelementptr inbounds i8, ptr %15, i64 48
  tail call void @llvm.memcpy.p0.p0.i64(ptr noundef nonnull align 8 dereferenceable(32) %26, ptr noundef nonnull align 8 dereferenceable(32) %25, i64 32, i1 false)
  %27 = getelementptr inbounds i8, ptr %.024.i, i64 8
  %28 = load ptr, ptr %27, align 8
  %29 = getelementptr inbounds i8, ptr %15, i64 8
  store ptr %28, ptr %29, align 8
  %.not.not.i = icmp sgt i64 %indvars.iv.next.i, %11
  br i1 %.not.not.i, label %.lr.ph.i, label %_ZL8yyfillinP14yyGLRStackItemii.exit, !llvm.loop !79

_ZL8yyfillinP14yyGLRStackItemii.exit:             ; preds = %24
  store i32 %2, ptr %1, align 4
  br label %30

30:                                               ; preds = %_ZL8yyfillinP14yyGLRStackItemii.exit, %5, %4
  ret i32 %2
}